; Function Attrs: nounwind uwtable
define internal fastcc noundef ptr @transformJsonArrayConstructor(ptr noundef %0, ptr noundef nonnull readonly captures(none) %1) unnamed_addr #0 {
  %3 = getelementptr inbounds nuw i8, ptr %1, i64 8
  %4 = load ptr, ptr %3, align 8
  %.not = icmp eq ptr %4, null
  br i1 %.not, label %.loopexit, label %.preheader

.preheader:                                       ; preds = %2
  %5 = getelementptr inbounds nuw i8, ptr %4, i64 4
  %6 = load i32, ptr %5, align 4
  %.not2225 = icmp sgt i32 %6, 0
  br i1 %.not2225, label %.lr.ph, label %.loopexit

.lr.ph:                                           ; preds = %.preheader
  %7 = getelementptr inbounds nuw i8, ptr %4, i64 16
  br label %8

8:                                                ; preds = %.lr.ph, %8
  %indvars.iv = phi i64 [ 0, %.lr.ph ], [ %indvars.iv.next, %8 ]
  %.127 = phi ptr [ null, %.lr.ph ], [ %13, %8 ]
  %9 = load ptr, ptr %7, align 8
  %10 = getelementptr inbounds nuw %union.ListCell, ptr %9, i64 %indvars.iv
  %11 = load ptr, ptr %10, align 8
  %12 = tail call fastcc ptr @transformJsonValueExpr(ptr noundef %0, ptr noundef nonnull @.str.149, ptr noundef %11, i32 noundef 0, i32 noundef 0, i1 noundef zeroext false)
  %13 = tail call ptr @lappend(ptr noundef %.127, ptr noundef %12) #9
  %indvars.iv.next = add nuw nsw i64 %indvars.iv, 1
  %14 = load i32, ptr %5, align 4
  %15 = sext i32 %14 to i64
  %.not22 = icmp slt i64 %indvars.iv.next, %15
  br i1 %.not22, label %8, label %.loopexit, !llvm.loop !12

.loopexit:                                        ; preds = %8, %.preheader, %2
  %.0 = phi ptr [ null, %2 ], [ null, %.preheader ], [ %13, %8 ]
  %16 = getelementptr inbounds nuw i8, ptr %1, i64 16
  %17 = load ptr, ptr %16, align 8
  %18 = tail call fastcc ptr @transformJsonOutput(ptr noundef %0, ptr noundef %17, i1 noundef zeroext true)
  %19 = getelementptr inbounds nuw i8, ptr %18, i64 16
  %20 = load i32, ptr %19, align 8
  %.not.i = icmp eq i32 %20, 0
  br i1 %.not.i, label %.preheader.i, label %transformJsonConstructorOutput.exit

.preheader.i:                                     ; preds = %.loopexit
  %.not23.i = icmp eq ptr %.0, null
  br i1 %.not23.i, label %.split.i, label %.lr.ph.i

.lr.ph.i:                                         ; preds = %.preheader.i
  %21 = getelementptr inbounds nuw i8, ptr %.0, i64 4
  %22 = getelementptr inbounds nuw i8, ptr %.0, i64 16
  %23 = load i32, ptr %21, align 4
  %24 = icmp sgt i32 %23, 0
  br i1 %24, label %.lr.ph34.i, label %.split.i

25:                                               ; preds = %.lr.ph34.i
  %indvars.iv.next.i = add nuw nsw i64 %indvars.iv.i, 1
  %26 = load i32, ptr %21, align 4
  %27 = sext i32 %26 to i64
  %28 = icmp slt i64 %indvars.iv.next.i, %27
  br i1 %28, label %.lr.ph34.i, label %.split.i

.lr.ph34.i:                                       ; preds = %.lr.ph.i, %25
  %indvars.iv.i = phi i64 [ %indvars.iv.next.i, %25 ], [ 0, %.lr.ph.i ]
  %29 = load ptr, ptr %22, align 8
  %30 = getelementptr inbounds nuw %union.ListCell, ptr %29, i64 %indvars.iv.i
  %31 = load ptr, ptr %30, align 8
  %32 = tail call i32 @exprType(ptr noundef %31) #9
  %.not30.i = icmp eq i32 %32, 3802
  br i1 %.not30.i, label %.split.i, label %25

.split.i:                                         ; preds = %.lr.ph34.i, %25, %.lr.ph.i, %.preheader.i
  %.sink39.i = phi i32 [ 114, %.lr.ph.i ], [ 114, %.preheader.i ], [ 114, %25 ], [ 3802, %.lr.ph34.i ]
  %.sink.i = phi i32 [ 1, %.lr.ph.i ], [ 1, %.preheader.i ], [ 1, %25 ], [ 2, %.lr.ph34.i ]
  store i32 %.sink39.i, ptr %19, align 8
  %33 = getelementptr inbounds nuw i8, ptr %18, i64 8
  %34 = load ptr, ptr %33, align 8
  %35 = getelementptr inbounds nuw i8, ptr %34, i64 4
  store i32 %.sink.i, ptr %35, align 4
  %36 = getelementptr inbounds nuw i8, ptr %18, i64 20
  store i32 -1, ptr %36, align 4
  br label %transformJsonConstructorOutput.exit

transformJsonConstructorOutput.exit:              ; preds = %.loopexit, %.split.i
  %37 = getelementptr inbounds nuw i8, ptr %1, i64 24
  %38 = load i8, ptr %37, align 8, !range !4, !noundef !5
  %39 = trunc nuw i8 %38 to i1
  %40 = getelementptr inbounds nuw i8, ptr %1, i64 28
  %41 = load i32, ptr %40, align 4
  %42 = tail call fastcc ptr @makeJsonConstructorExpr(ptr noundef %0, i32 noundef 2, ptr noundef %.0, ptr noundef null, ptr noundef nonnull %18, i1 noundef zeroext false, i1 noundef zeroext %39, i32 noundef %41)
  ret ptr %42
}